target datalayout = "e-m:e-p270:32:32-p271:32:32-p272:64:64-i64:64-i128:128-f80:128-n8:16:32:64-S128"
target triple = "x86_64-pc-linux-gnu"

; Function Attrs: nounwind uwtable
define internal void @vert_32x32_c(ptr noalias noundef %0, i64 noundef %1, ptr noundef %2, ptr noundef %3) #1 {
  %5 = alloca ptr, align 8
  %6 = alloca i64, align 8
  %7 = alloca ptr, align 8
  %8 = alloca ptr, align 8
  %9 = alloca ptr, align 8
  %10 = alloca ptr, align 8
  %11 = alloca i64, align 8
  %12 = alloca i64, align 8
  %13 = alloca i64, align 8
  %14 = alloca i64, align 8
  %15 = alloca i64, align 8
  %16 = alloca i64, align 8
  %17 = alloca i64, align 8
  %18 = alloca i64, align 8
  %19 = alloca i32, align 4
  store ptr %0, ptr %5, align 8, !tbaa !10
  store i64 %1, ptr %6, align 8, !tbaa !12
  store ptr %2, ptr %7, align 8, !tbaa !10
  store ptr %3, ptr %8, align 8, !tbaa !10
  call void @llvm.lifetime.start.p0(i64 8, ptr %9) #9
  %20 = load ptr, ptr %5, align 8, !tbaa !10
  store ptr %20, ptr %9, align 8, !tbaa !14
  call void @llvm.lifetime.start.p0(i64 8, ptr %10) #9
  %21 = load ptr, ptr %8, align 8, !tbaa !10
  store ptr %21, ptr %10, align 8, !tbaa !14
  call void @llvm.lifetime.start.p0(i64 8, ptr %11) #9
  %22 = load ptr, ptr %10, align 8, !tbaa !14
  %23 = getelementptr inbounds i16, ptr %22, i64 0
  %24 = load i64, ptr %23, align 8, !tbaa !16
  store i64 %24, ptr %11, align 8, !tbaa !12
  call void @llvm.lifetime.start.p0(i64 8, ptr %12) #9
  %25 = load ptr, ptr %10, align 8, !tbaa !14
  %26 = getelementptr inbounds i16, ptr %25, i64 4
  %27 = load i64, ptr %26, align 8, !tbaa !16
  store i64 %27, ptr %12, align 8, !tbaa !12
  call void @llvm.lifetime.start.p0(i64 8, ptr %13) #9
  %28 = load ptr, ptr %10, align 8, !tbaa !14
  %29 = getelementptr inbounds i16, ptr %28, i64 8
  %30 = load i64, ptr %29, align 8, !tbaa !16
  store i64 %30, ptr %13, align 8, !tbaa !12
  call void @llvm.lifetime.start.p0(i64 8, ptr %14) #9
  %31 = load ptr, ptr %10, align 8, !tbaa !14
  %32 = getelementptr inbounds i16, ptr %31, i64 12
  %33 = load i64, ptr %32, align 8, !tbaa !16
  store i64 %33, ptr %14, align 8, !tbaa !12
  call void @llvm.lifetime.start.p0(i64 8, ptr %15) #9
  %34 = load ptr, ptr %10, align 8, !tbaa !14
  %35 = getelementptr inbounds i16, ptr %34, i64 16
  %36 = load i64, ptr %35, align 8, !tbaa !16
  store i64 %36, ptr %15, align 8, !tbaa !12
  call void @llvm.lifetime.start.p0(i64 8, ptr %16) #9
  %37 = load ptr, ptr %10, align 8, !tbaa !14
  %38 = getelementptr inbounds i16, ptr %37, i64 20
  %39 = load i64, ptr %38, align 8, !tbaa !16
  store i64 %39, ptr %16, align 8, !tbaa !12
  call void @llvm.lifetime.start.p0(i64 8, ptr %17) #9
  %40 = load ptr, ptr %10, align 8, !tbaa !14
  %41 = getelementptr inbounds i16, ptr %40, i64 24
  %42 = load i64, ptr %41, align 8, !tbaa !16
  store i64 %42, ptr %17, align 8, !tbaa !12
  call void @llvm.lifetime.start.p0(i64 8, ptr %18) #9
  %43 = load ptr, ptr %10, align 8, !tbaa !14
  %44 = getelementptr inbounds i16, ptr %43, i64 28
  %45 = load i64, ptr %44, align 8, !tbaa !16
  store i64 %45, ptr %18, align 8, !tbaa !12
  call void @llvm.lifetime.start.p0(i64 4, ptr %19) #9
  %46 = load i64, ptr %6, align 8, !tbaa !12
  %47 = udiv i64 %46, 2
  store i64 %47, ptr %6, align 8, !tbaa !12
  store i32 0, ptr %19, align 4, !tbaa !19
  br label %48

48:                                               ; preds = %79, %4
  %49 = load i32, ptr %19, align 4, !tbaa !19
  %50 = icmp slt i32 %49, 32
  br i1 %50, label %51, label %82

51:                                               ; preds = %48
  %52 = load i64, ptr %11, align 8, !tbaa !12
  %53 = load ptr, ptr %9, align 8, !tbaa !14
  %54 = getelementptr inbounds i16, ptr %53, i64 0
  store i64 %52, ptr %54, align 8, !tbaa !16
  %55 = load i64, ptr %12, align 8, !tbaa !12
  %56 = load ptr, ptr %9, align 8, !tbaa !14
  %57 = getelementptr inbounds i16, ptr %56, i64 4
  store i64 %55, ptr %57, align 8, !tbaa !16
  %58 = load i64, ptr %13, align 8, !tbaa !12
  %59 = load ptr, ptr %9, align 8, !tbaa !14
  %60 = getelementptr inbounds i16, ptr %59, i64 8
  store i64 %58, ptr %60, align 8, !tbaa !16
  %61 = load i64, ptr %14, align 8, !tbaa !12
  %62 = load ptr, ptr %9, align 8, !tbaa !14
  %63 = getelementptr inbounds i16, ptr %62, i64 12
  store i64 %61, ptr %63, align 8, !tbaa !16
  %64 = load i64, ptr %15, align 8, !tbaa !12
  %65 = load ptr, ptr %9, align 8, !tbaa !14
  %66 = getelementptr inbounds i16, ptr %65, i64 16
  store i64 %64, ptr %66, align 8, !tbaa !16
  %67 = load i64, ptr %16, align 8, !tbaa !12
  %68 = load ptr, ptr %9, align 8, !tbaa !14
  %69 = getelementptr inbounds i16, ptr %68, i64 20
  store i64 %67, ptr %69, align 8, !tbaa !16
  %70 = load i64, ptr %17, align 8, !tbaa !12
  %71 = load ptr, ptr %9, align 8, !tbaa !14
  %72 = getelementptr inbounds i16, ptr %71, i64 24
  store i64 %70, ptr %72, align 8, !tbaa !16
  %73 = load i64, ptr %18, align 8, !tbaa !12
  %74 = load ptr, ptr %9, align 8, !tbaa !14
  %75 = getelementptr inbounds i16, ptr %74, i64 28
  store i64 %73, ptr %75, align 8, !tbaa !16
  %76 = load i64, ptr %6, align 8, !tbaa !12
  %77 = load ptr, ptr %9, align 8, !tbaa !14
  %78 = getelementptr inbounds i16, ptr %77, i64 %76
  store ptr %78, ptr %9, align 8, !tbaa !14
  br label %79

79:                                               ; preds = %51
  %80 = load i32, ptr %19, align 4, !tbaa !19
  %81 = add nsw i32 %80, 1
  store i32 %81, ptr %19, align 4, !tbaa !19
  br label %48, !llvm.loop !69

82:                                               ; preds = %48
  call void @llvm.lifetime.end.p0(i64 4, ptr %19) #9
  call void @llvm.lifetime.end.p0(i64 8, ptr %18) #9
  call void @llvm.lifetime.end.p0(i64 8, ptr %17) #9
  call void @llvm.lifetime.end.p0(i64 8, ptr %16) #9
  call void @llvm.lifetime.end.p0(i64 8, ptr %15) #9
  call void @llvm.lifetime.end.p0(i64 8, ptr %14) #9
  call void @llvm.lifetime.end.p0(i64 8, ptr %13) #9
  call void @llvm.lifetime.end.p0(i64 8, ptr %12) #9
  call void @llvm.lifetime.end.p0(i64 8, ptr %11) #9
  call void @llvm.lifetime.end.p0(i64 8, ptr %10) #9
  call void @llvm.lifetime.end.p0(i64 8, ptr %9) #9
  ret void
}