; Function Attrs: nofree norecurse nosync nounwind memory(argmem: readwrite) uwtable
define internal void @vert_32x32_c(ptr noalias noundef writeonly captures(none) %0, i64 noundef %1, ptr readnone captures(none) %2, ptr noundef readonly captures(none) %3) #2 {
  %5 = load i64, ptr %3, align 8, !tbaa !8
  %6 = getelementptr inbounds nuw i8, ptr %3, i64 8
  %7 = load i64, ptr %6, align 8, !tbaa !8
  %8 = getelementptr inbounds nuw i8, ptr %3, i64 16
  %9 = load i64, ptr %8, align 8, !tbaa !8
  %10 = getelementptr inbounds nuw i8, ptr %3, i64 24
  %11 = load i64, ptr %10, align 8, !tbaa !8
  %12 = getelementptr inbounds nuw i8, ptr %3, i64 32
  %13 = load i64, ptr %12, align 8, !tbaa !8
  %14 = getelementptr inbounds nuw i8, ptr %3, i64 40
  %15 = load i64, ptr %14, align 8, !tbaa !8
  %16 = getelementptr inbounds nuw i8, ptr %3, i64 48
  %17 = load i64, ptr %16, align 8, !tbaa !8
  %18 = getelementptr inbounds nuw i8, ptr %3, i64 56
  %19 = load i64, ptr %18, align 8, !tbaa !8
  %20 = lshr i64 %1, 1
  br label %21

21:                                               ; preds = %4, %21
  %.032 = phi i32 [ 0, %4 ], [ %30, %21 ]
  %.03031 = phi ptr [ %0, %4 ], [ %29, %21 ]
  store i64 %5, ptr %.03031, align 8, !tbaa !8
  %22 = getelementptr inbounds nuw i8, ptr %.03031, i64 8
  store i64 %7, ptr %22, align 8, !tbaa !8
  %23 = getelementptr inbounds nuw i8, ptr %.03031, i64 16
  store i64 %9, ptr %23, align 8, !tbaa !8
  %24 = getelementptr inbounds nuw i8, ptr %.03031, i64 24
  store i64 %11, ptr %24, align 8, !tbaa !8
  %25 = getelementptr inbounds nuw i8, ptr %.03031, i64 32
  store i64 %13, ptr %25, align 8, !tbaa !8
  %26 = getelementptr inbounds nuw i8, ptr %.03031, i64 40
  store i64 %15, ptr %26, align 8, !tbaa !8
  %27 = getelementptr inbounds nuw i8, ptr %.03031, i64 48
  store i64 %17, ptr %27, align 8, !tbaa !8
  %28 = getelementptr inbounds nuw i8, ptr %.03031, i64 56
  store i64 %19, ptr %28, align 8, !tbaa !8
  %29 = getelementptr inbounds nuw i16, ptr %.03031, i64 %20
  %30 = add nuw nsw i32 %.032, 1
  %exitcond.not = icmp eq i32 %30, 32
  br i1 %exitcond.not, label %31, label %21, !llvm.loop !60

31:                                               ; preds = %21
  ret void
}